; Function Attrs: mustprogress nofree norecurse nosync nounwind willreturn memory(read, inaccessiblemem: none) uwtable
define hidden noundef ptr @_ZN8DivDNode8IdentityEP8PhaseGVN(ptr noundef nonnull readonly align 8 dereferenceable(52) %0, ptr nocapture noundef readonly %1) unnamed_addr #2 align 2 {
  %3 = getelementptr inbounds i8, ptr %0, i64 8
  %4 = load ptr, ptr %3, align 8
  %5 = getelementptr inbounds i8, ptr %4, i64 16
  %6 = load ptr, ptr %5, align 8
  %7 = getelementptr inbounds i8, ptr %1, i64 40
  %8 = load ptr, ptr %7, align 8
  %9 = getelementptr inbounds i8, ptr %6, i64 40
  %10 = load i32, ptr %9, align 8
  %11 = getelementptr inbounds i8, ptr %8, i64 16
  %12 = load ptr, ptr %11, align 8
  %13 = zext i32 %10 to i64
  %14 = getelementptr inbounds ptr, ptr %12, i64 %13
  %15 = load ptr, ptr %14, align 8
  %16 = load ptr, ptr @_ZN5TypeD3ONEE, align 8
  %17 = icmp eq ptr %15, %16
  br i1 %17, label %18, label %21

18:                                               ; preds = %2
  %19 = getelementptr inbounds i8, ptr %4, i64 8
  %20 = load ptr, ptr %19, align 8
  br label %21

21:                                               ; preds = %2, %18
  %22 = phi ptr [ %20, %18 ], [ %0, %2 ]
  ret ptr %22
}